; Function Attrs: mustprogress nounwind uwtable
define dso_local noundef ptr @_ZN4node4quic10TLSContext13getConnectionEP22ngtcp2_crypto_conn_ref(ptr noundef %ref) #4 align 2 {
entry:
  %0 = ptrtoint ptr %ref to i64
  %sub.i.i = add i64 %0, -8
  %1 = inttoptr i64 %sub.i.i to ptr
  %session_ = getelementptr inbounds i8, ptr %1, i64 40
  %2 = load ptr, ptr %session_, align 8
  %call2 = tail call noundef ptr @_ZNK4node4quic7SessioncvP11ngtcp2_connEv(ptr noundef nonnull align 8 dereferenceable(2616) %2) #18
  ret ptr %call2
}